; Function Attrs: mustprogress uwtable
define noundef i64 @_ZN8proxygen11HTTP1xCodec11generateEOMERN5folly10IOBufQueueEm(ptr nocapture noundef nonnull align 8 dereferenceable(428) %this, ptr noundef nonnull align 8 dereferenceable(72) %writeBuf, i64 %txn) unnamed_addr #3 align 2 personality ptr @__gxx_personality_v0 {
entry:
  %ref.tmp17 = alloca %"class.google::LogMessageFatal", align 8
  %egressChunked_ = getelementptr inbounds i8, ptr %this, i64 424
  %bf.load = load i32, ptr %egressChunked_, align 8
  %0 = and i32 %bf.load, 256
  %bf.cast.not = icmp eq i32 %0, 0
  br i1 %bf.cast.not, label %if.end56, label %if.then

if.then:                                          ; preds = %entry
  %1 = and i32 %bf.load, 512
  %bf.cast14.not.not = icmp eq i32 %1, 0
  br i1 %bf.cast14.not.not, label %cleanup.done, label %cond.false

cond.false:                                       ; preds = %if.then
  call void @_ZN6google15LogMessageFatalC1EPKci(ptr noundef nonnull align 8 dereferenceable(96) %ref.tmp17, ptr noundef nonnull @.str.2, i32 noundef 801)
  %call20 = invoke noundef nonnull align 8 dereferenceable(8) ptr @_ZN6google10LogMessage6streamEv(ptr noundef nonnull align 8 dereferenceable(96) %ref.tmp17)
          to label %invoke.cont19 unwind label %lpad18

invoke.cont19:                                    ; preds = %cond.false
  %call22 = invoke noundef nonnull align 8 dereferenceable(8) ptr @_ZStlsISt11char_traitsIcEERSt13basic_ostreamIcT_ES5_PKc(ptr noundef nonnull align 8 dereferenceable(8) %call20, ptr noundef nonnull @.str.35)
          to label %cleanup.action unwind label %lpad18

cleanup.action:                                   ; preds = %invoke.cont19
  call void @_ZN6google15LogMessageFatalD1Ev(ptr noundef nonnull align 8 dereferenceable(96) %ref.tmp17) #26
  unreachable

lpad18:                                           ; preds = %invoke.cont19, %cond.false
  %2 = landingpad { ptr, i32 }
          cleanup
  call void @_ZN6google15LogMessageFatalD1Ev(ptr noundef nonnull align 8 dereferenceable(96) %ref.tmp17) #26
  unreachable

cleanup.done:                                     ; preds = %if.then
  %3 = and i32 %bf.load, 16384
  %bf.cast30.not = icmp ne i32 %3, 0
  %transportDirection_ = getelementptr inbounds i8, ptr %this, i64 381
  %4 = load i8, ptr %transportDirection_, align 1
  %cmp = icmp eq i8 %4, 0
  %or.cond = select i1 %bf.cast30.not, i1 %cmp, i1 false
  br i1 %or.cond, label %if.then31, label %if.else

if.then31:                                        ; preds = %cleanup.done
  %bf.set = or i32 %bf.load, 1024
  store i32 %bf.set, ptr %egressChunked_, align 8
  br label %if.end56

if.else:                                          ; preds = %cleanup.done
  %5 = and i32 %bf.load, 1024
  %bf.cast38.not = icmp eq i32 %5, 0
  br i1 %bf.cast38.not, label %if.then52, label %if.end53

if.then52:                                        ; preds = %if.else
  %bf.set43 = or disjoint i32 %bf.load, 1024
  store i32 %bf.set43, ptr %egressChunked_, align 8
  tail call void @_ZN5folly10IOBufQueue6appendEPKvm(ptr noundef nonnull align 8 dereferenceable(72) %writeBuf, ptr noundef nonnull @.str.36, i64 noundef 3)
  br label %if.end53

if.end53:                                         ; preds = %if.then52, %if.else
  %len.0 = phi i64 [ 2, %if.else ], [ 5, %if.then52 ]
  tail call void @_ZN5folly10IOBufQueue6appendEPKvm(ptr noundef nonnull align 8 dereferenceable(72) %writeBuf, ptr noundef nonnull @.str.26, i64 noundef 2)
  br label %if.end56

if.end56:                                         ; preds = %if.then31, %if.end53, %entry
  %len.1 = phi i64 [ 0, %if.then31 ], [ %len.0, %if.end53 ], [ 0, %entry ]
  %transportDirection_57 = getelementptr inbounds i8, ptr %this, i64 381
  %6 = load i8, ptr %transportDirection_57, align 1
  switch i8 %6, label %sw.epilog [
    i8 0, label %sw.epilog.sink.split
    i8 1, label %sw.bb61
  ]

sw.bb61:                                          ; preds = %if.end56
  br label %sw.epilog.sink.split

sw.epilog.sink.split:                             ; preds = %if.end56, %sw.bb61
  %.sink = phi i32 [ -65, %sw.bb61 ], [ -129, %if.end56 ]
  %bf.load62 = load i32, ptr %egressChunked_, align 8
  %bf.clear63 = and i32 %bf.load62, %.sink
  store i32 %bf.clear63, ptr %egressChunked_, align 8
  br label %sw.epilog

sw.epilog:                                        ; preds = %sw.epilog.sink.split, %if.end56
  ret i64 %len.1
}